target datalayout = "e-m:e-p270:32:32-p271:32:32-p272:64:64-i64:64-i128:128-f80:128-n8:16:32:64-S128"
target triple = "x86_64-pc-linux-gnu"

%struct.WebPDecoderOptions = type { i32, i32, i32, i32, i32, i32, i32, i32, i32, i32, i32, i32, i32, i32, [5 x i32] }

; Function Attrs: nounwind uwtable
define hidden i32 @VP8GetThreadMethod(ptr noundef %0, ptr noundef %1, i32 noundef %2, i32 noundef %3) #0 {
  %5 = alloca i32, align 4
  %6 = alloca ptr, align 8
  %7 = alloca ptr, align 8
  %8 = alloca i32, align 4
  %9 = alloca i32, align 4
  store ptr %0, ptr %6, align 8
  store ptr %1, ptr %7, align 8
  store i32 %2, ptr %8, align 4
  store i32 %3, ptr %9, align 4
  %10 = load ptr, ptr %6, align 8
  %11 = icmp eq ptr %10, null
  br i1 %11, label %17, label %12

12:                                               ; preds = %4
  %13 = load ptr, ptr %6, align 8
  %14 = getelementptr inbounds %struct.WebPDecoderOptions, ptr %13, i32 0, i32 10
  %15 = load i32, ptr %14, align 4
  %16 = icmp eq i32 %15, 0
  br i1 %16, label %17, label %18

17:                                               ; preds = %12, %4
  store i32 0, ptr %5, align 4
  br label %23

18:                                               ; preds = %12
  %19 = load i32, ptr %8, align 4
  %20 = icmp sge i32 %19, 512
  br i1 %20, label %21, label %22

21:                                               ; preds = %18
  store i32 2, ptr %5, align 4
  br label %23

22:                                               ; preds = %18
  store i32 0, ptr %5, align 4
  br label %23

23:                                               ; preds = %22, %21, %17
  %24 = load i32, ptr %5, align 4
  ret i32 %24
}