; Function Attrs: mustprogress nofree norecurse nosync nounwind willreturn memory(argmem: read) uwtable
define hidden range(i32 0, 3) i32 @VP8GetThreadMethod(ptr noundef readonly %0, ptr nocapture noundef readnone %1, i32 noundef %2, i32 noundef %3) local_unnamed_addr #3 {
  %5 = icmp eq ptr %0, null
  br i1 %5, label %12, label %6

6:                                                ; preds = %4
  %7 = getelementptr inbounds i8, ptr %0, i64 40
  %8 = load i32, ptr %7, align 4
  %9 = icmp eq i32 %8, 0
  br i1 %9, label %12, label %10

10:                                               ; preds = %6
  %11 = icmp sgt i32 %2, 511
  %. = select i1 %11, i32 2, i32 0
  br label %12

12:                                               ; preds = %10, %4, %6
  %.0 = phi i32 [ 0, %6 ], [ 0, %4 ], [ %., %10 ]
  ret i32 %.0
}